; Function Attrs: mustprogress nounwind uwtable
define dso_local void @_ZN4node6crypto7NodeBIO3NewEPNS_11EnvironmentE(ptr noalias nocapture writeonly sret(%"class.std::unique_ptr") align 8 %agg.result, ptr noundef %env) local_unnamed_addr #3 align 2 {
entry:
  %0 = load atomic i8, ptr @_ZGVZN4node6crypto7NodeBIO9GetMethodEvE6method acquire, align 8
  %guard.uninitialized.i = icmp eq i8 %0, 0
  br i1 %guard.uninitialized.i, label %init.check.i, label %_ZN4node6crypto7NodeBIO9GetMethodEv.exit, !prof !5

init.check.i:                                     ; preds = %entry
  %1 = tail call i32 @__cxa_guard_acquire(ptr nonnull @_ZGVZN4node6crypto7NodeBIO9GetMethodEvE6method) #16
  %tobool.not.i = icmp eq i32 %1, 0
  br i1 %tobool.not.i, label %_ZN4node6crypto7NodeBIO9GetMethodEv.exit, label %init.i

init.i:                                           ; preds = %init.check.i
  %call.i = tail call fastcc noundef ptr @"_ZZN4node6crypto7NodeBIO9GetMethodEvENK3$_0clEv"()
  store ptr %call.i, ptr @_ZZN4node6crypto7NodeBIO9GetMethodEvE6method, align 8
  tail call void @__cxa_guard_release(ptr nonnull @_ZGVZN4node6crypto7NodeBIO9GetMethodEvE6method) #16
  br label %_ZN4node6crypto7NodeBIO9GetMethodEv.exit

_ZN4node6crypto7NodeBIO9GetMethodEv.exit:         ; preds = %entry, %init.check.i, %init.i
  %2 = load ptr, ptr @_ZZN4node6crypto7NodeBIO9GetMethodEvE6method, align 8
  %call1 = tail call ptr @BIO_new(ptr noundef %2) #16
  store ptr %call1, ptr %agg.result, align 8
  %cmp.i = icmp ne ptr %call1, null
  %cmp = icmp ne ptr %env, null
  %or.cond = and i1 %cmp, %cmp.i
  br i1 %or.cond, label %if.then, label %nrvo.skipdtor

if.then:                                          ; preds = %_ZN4node6crypto7NodeBIO9GetMethodEv.exit
  %call.i2 = tail call ptr @BIO_get_data(ptr noundef nonnull %call1) #16
  %cmp.not.i = icmp eq ptr %call.i2, null
  br i1 %cmp.not.i, label %do.body3.i, label %_ZN4node6crypto7NodeBIO7FromBIOEP6bio_st.exit

do.body3.i:                                       ; preds = %if.then
  tail call void @_ZN4node6AssertERKNS_13AssertionInfoE(ptr noundef nonnull align 8 dereferenceable(24) @_ZZN4node6crypto7NodeBIO7FromBIOEP6bio_stE4args) #16
  tail call void @abort() #17
  unreachable

_ZN4node6crypto7NodeBIO7FromBIOEP6bio_st.exit:    ; preds = %if.then
  %call5.i = tail call noundef ptr @BIO_get_data(ptr noundef nonnull %call1) #16
  %env_ = getelementptr inbounds i8, ptr %call5.i, i64 8
  store ptr %env, ptr %env_, align 8
  br label %nrvo.skipdtor

nrvo.skipdtor:                                    ; preds = %_ZN4node6crypto7NodeBIO9GetMethodEv.exit, %_ZN4node6crypto7NodeBIO7FromBIOEP6bio_st.exit
  ret void
}